target datalayout = "e-m:e-p270:32:32-p271:32:32-p272:64:64-i64:64-i128:128-f80:128-n8:16:32:64-S128"
target triple = "x86_64-pc-linux-gnu"

%struct._value_string_ext = type { ptr, i32, i32, ptr, ptr }
%struct.expert_field = type { i32, i32 }
%struct._packet_info = type { ptr, ptr, i32, i32, %struct.nstime_t, %struct.nstime_t, %struct.nstime_t, i8, ptr, ptr, ptr, ptr, %struct._address, %struct._address, %struct._address, %struct._address, %struct._address, %struct._address, i32, ptr, i8, [3 x i8], %struct.anon, i32, i32, i32, i32, ptr, i8, ptr, ptr, i16, i16, i32, i32, i16, i32, i32, ptr, ptr, ptr, i8, i8, i16, i16, i16, i32, i16, i16, ptr, ptr, ptr, ptr, ptr, i32, i32 }
%struct.nstime_t = type { i64, i32 }
%struct._address = type { i32, i32, ptr, ptr }
%struct.anon = type { i8, [3 x i8] }
%struct._t38_packet_info = type { i16, i32, i32, i32, i32, i32, i8, [128 x i8], [128 x i8], double, i32 }

@t30_facsimile_control_field_vals_ext = global %struct._value_string_ext { ptr @_try_val_to_str_ext_init, i32 0, i32 50, ptr @t30_facsimile_control_field_vals, ptr @.str }, align 8
@t30_facsimile_control_field_vals_short_ext = global %struct._value_string_ext { ptr @_try_val_to_str_ext_init, i32 0, i32 50, ptr @t30_facsimile_control_field_vals_short, ptr @.str.1 }, align 8
@hf_t30_Address = internal global i32 0, align 4
@hf_t30_Control = internal global i32 0, align 4
@hf_t30_Facsimile_Control = internal global i32 0, align 4
@ett_t30 = internal global i32 0, align 4
@ett_t30_fif = internal global i32 0, align 4
@ei_t30_bad_length = internal global %struct.expert_field zeroinitializer, align 4
@ei_t30_Address_FF = internal global %struct.expert_field zeroinitializer, align 4
@ei_t30_Control_C0C8 = internal global %struct.expert_field zeroinitializer, align 4
@proto_t30 = internal global i32 0, align 4
@.str.397 = private unnamed_addr constant [36 x i8] c"T30 length must be at least 4 bytes\00", align 1
@.str.398 = private unnamed_addr constant [49 x i8] c" (HDLC Reassembled: [MALFORMED OR SHORT PACKET])\00", align 1
@.str.399 = private unnamed_addr constant [20 x i8] c" (HDLC Reassembled:\00", align 1
@.str.400 = private unnamed_addr constant [26 x i8] c"ITU-T Recommendation T.30\00", align 1
@.str.401 = private unnamed_addr constant [9 x i8] c" %s - %s\00", align 1
@.str.402 = private unnamed_addr constant [10 x i8] c"<unknown>\00", align 1
@.str.403 = private unnamed_addr constant [2 x i8] c")\00", align 1

; Function Attrs: null_pointer_is_valid sspstrong uwtable
define internal i32 @dissect_t30_hdlc(ptr noundef %0, ptr noundef %1, ptr noundef %2, ptr noundef %3) #1 {
  %5 = alloca i32, align 4
  %6 = alloca ptr, align 8
  %7 = alloca ptr, align 8
  %8 = alloca ptr, align 8
  %9 = alloca ptr, align 8
  %10 = alloca i32, align 4
  %11 = alloca ptr, align 8
  %12 = alloca ptr, align 8
  %13 = alloca ptr, align 8
  %14 = alloca ptr, align 8
  %15 = alloca i8, align 1
  %16 = alloca i32, align 4
  %17 = alloca ptr, align 8
  %18 = alloca ptr, align 8
  %19 = alloca i32, align 4
  store ptr %0, ptr %6, align 8
  store ptr %1, ptr %7, align 8
  store ptr %2, ptr %8, align 8
  store ptr %3, ptr %9, align 8
  call void @llvm.lifetime.start.p0(i64 4, ptr %10) #8
  store i32 0, ptr %10, align 4
  call void @llvm.lifetime.start.p0(i64 8, ptr %11) #8
  call void @llvm.lifetime.start.p0(i64 8, ptr %12) #8
  call void @llvm.lifetime.start.p0(i64 8, ptr %13) #8
  call void @llvm.lifetime.start.p0(i64 8, ptr %14) #8
  call void @llvm.lifetime.start.p0(i64 1, ptr %15) #8
  call void @llvm.lifetime.start.p0(i64 4, ptr %16) #8
  call void @llvm.lifetime.start.p0(i64 8, ptr %17) #8
  call void @llvm.lifetime.start.p0(i64 8, ptr %18) #8
  %20 = load ptr, ptr %9, align 8
  store ptr %20, ptr %18, align 8
  %21 = load ptr, ptr %6, align 8
  %22 = load i32, ptr %10, align 4
  %23 = call i32 @tvb_reported_length_remaining(ptr noundef %21, i32 noundef %22)
  %24 = icmp slt i32 %23, 3
  br i1 %24, label %25, label %38

25:                                               ; preds = %4
  %26 = load ptr, ptr %8, align 8
  %27 = load ptr, ptr %7, align 8
  %28 = load ptr, ptr %6, align 8
  %29 = load i32, ptr %10, align 4
  %30 = load ptr, ptr %6, align 8
  %31 = load i32, ptr %10, align 4
  %32 = call i32 @tvb_reported_length_remaining(ptr noundef %30, i32 noundef %31)
  %33 = call ptr (ptr, ptr, ptr, ptr, i32, i32, ptr, ...) @proto_tree_add_expert_format(ptr noundef %26, ptr noundef %27, ptr noundef @ei_t30_bad_length, ptr noundef %28, i32 noundef %29, i32 noundef %32, ptr noundef @.str.397)
  %34 = load ptr, ptr %7, align 8
  %35 = getelementptr inbounds nuw %struct._packet_info, ptr %34, i32 0, i32 1
  %36 = load ptr, ptr %35, align 8
  call void @col_append_str(ptr noundef %36, i32 noundef 25, ptr noundef @.str.398)
  %37 = load i32, ptr %10, align 4
  store i32 %37, ptr %5, align 4
  store i32 1, ptr %19, align 4
  br label %203

38:                                               ; preds = %4
  %39 = load ptr, ptr %7, align 8
  %40 = getelementptr inbounds nuw %struct._packet_info, ptr %39, i32 0, i32 1
  %41 = load ptr, ptr %40, align 8
  call void @col_append_str(ptr noundef %41, i32 noundef 25, ptr noundef @.str.399)
  %42 = load ptr, ptr %8, align 8
  %43 = load i32, ptr @proto_t30, align 4
  %44 = load ptr, ptr %6, align 8
  %45 = load i32, ptr %10, align 4
  %46 = call ptr (ptr, i32, ptr, i32, i32, ptr, ...) @proto_tree_add_protocol_format(ptr noundef %42, i32 noundef %43, ptr noundef %44, i32 noundef %45, i32 noundef -1, ptr noundef @.str.400)
  store ptr %46, ptr %11, align 8
  %47 = load ptr, ptr %11, align 8
  %48 = load i32, ptr @ett_t30, align 4
  %49 = call ptr @proto_item_add_subtree(ptr noundef %47, i32 noundef %48)
  store ptr %49, ptr %12, align 8
  %50 = load ptr, ptr %6, align 8
  %51 = load i32, ptr %10, align 4
  %52 = call zeroext i8 @tvb_get_uint8(ptr noundef %50, i32 noundef %51)
  store i8 %52, ptr %15, align 1
  %53 = load ptr, ptr %12, align 8
  %54 = load i32, ptr @hf_t30_Address, align 4
  %55 = load ptr, ptr %6, align 8
  %56 = load i32, ptr %10, align 4
  %57 = call ptr @proto_tree_add_item(ptr noundef %53, i32 noundef %54, ptr noundef %55, i32 noundef %56, i32 noundef 1, i32 noundef 0)
  store ptr %57, ptr %17, align 8
  %58 = load i8, ptr %15, align 1
  %59 = zext i8 %58 to i32
  %60 = icmp ne i32 %59, 255
  br i1 %60, label %61, label %65

61:                                               ; preds = %38
  %62 = load ptr, ptr %7, align 8
  %63 = load ptr, ptr %17, align 8
  %64 = call ptr @expert_add_info(ptr noundef %62, ptr noundef %63, ptr noundef @ei_t30_Address_FF)
  br label %65

65:                                               ; preds = %61, %38
  %66 = load i32, ptr %10, align 4
  %67 = add i32 %66, 1
  store i32 %67, ptr %10, align 4
  %68 = load ptr, ptr %6, align 8
  %69 = load i32, ptr %10, align 4
  %70 = call zeroext i8 @tvb_get_uint8(ptr noundef %68, i32 noundef %69)
  store i8 %70, ptr %15, align 1
  %71 = load ptr, ptr %12, align 8
  %72 = load i32, ptr @hf_t30_Control, align 4
  %73 = load ptr, ptr %6, align 8
  %74 = load i32, ptr %10, align 4
  %75 = call ptr @proto_tree_add_item(ptr noundef %71, i32 noundef %72, ptr noundef %73, i32 noundef %74, i32 noundef 1, i32 noundef 0)
  store ptr %75, ptr %17, align 8
  %76 = load i8, ptr %15, align 1
  %77 = zext i8 %76 to i32
  %78 = icmp ne i32 %77, 192
  br i1 %78, label %79, label %87

79:                                               ; preds = %65
  %80 = load i8, ptr %15, align 1
  %81 = zext i8 %80 to i32
  %82 = icmp ne i32 %81, 200
  br i1 %82, label %83, label %87

83:                                               ; preds = %79
  %84 = load ptr, ptr %7, align 8
  %85 = load ptr, ptr %17, align 8
  %86 = call ptr @expert_add_info(ptr noundef %84, ptr noundef %85, ptr noundef @ei_t30_Control_C0C8)
  br label %87

87:                                               ; preds = %83, %79, %65
  %88 = load i32, ptr %10, align 4
  %89 = add i32 %88, 1
  store i32 %89, ptr %10, align 4
  %90 = load ptr, ptr %6, align 8
  %91 = load i32, ptr %10, align 4
  %92 = call zeroext i8 @tvb_get_uint8(ptr noundef %90, i32 noundef %91)
  store i8 %92, ptr %15, align 1
  %93 = load ptr, ptr %12, align 8
  %94 = load i32, ptr @hf_t30_Facsimile_Control, align 4
  %95 = load ptr, ptr %6, align 8
  %96 = load i32, ptr %10, align 4
  %97 = call ptr @proto_tree_add_item(ptr noundef %93, i32 noundef %94, ptr noundef %95, i32 noundef %96, i32 noundef 1, i32 noundef 0)
  store ptr %97, ptr %14, align 8
  %98 = load i32, ptr %10, align 4
  %99 = add i32 %98, 1
  store i32 %99, ptr %10, align 4
  %100 = load ptr, ptr %14, align 8
  %101 = load i32, ptr @ett_t30_fif, align 4
  %102 = call ptr @proto_item_add_subtree(ptr noundef %100, i32 noundef %101)
  store ptr %102, ptr %13, align 8
  %103 = load ptr, ptr %6, align 8
  %104 = load i32, ptr %10, align 4
  %105 = call i32 @tvb_reported_length_remaining(ptr noundef %103, i32 noundef %104)
  store i32 %105, ptr %16, align 4
  %106 = load ptr, ptr %18, align 8
  %107 = icmp ne ptr %106, null
  br i1 %107, label %108, label %112

108:                                              ; preds = %87
  %109 = load i8, ptr %15, align 1
  %110 = load ptr, ptr %18, align 8
  %111 = getelementptr inbounds nuw %struct._t38_packet_info, ptr %110, i32 0, i32 6
  store i8 %109, ptr %111, align 8
  br label %112

112:                                              ; preds = %108, %87
  %113 = load ptr, ptr %7, align 8
  %114 = getelementptr inbounds nuw %struct._packet_info, ptr %113, i32 0, i32 1
  %115 = load ptr, ptr %114, align 8
  %116 = load i8, ptr %15, align 1
  %117 = zext i8 %116 to i32
  %118 = and i32 %117, 127
  %119 = call ptr @val_to_str_ext_const(i32 noundef %118, ptr noundef @t30_facsimile_control_field_vals_short_ext, ptr noundef @.str.402)
  %120 = load i8, ptr %15, align 1
  %121 = zext i8 %120 to i32
  %122 = and i32 %121, 127
  %123 = call ptr @val_to_str_ext_const(i32 noundef %122, ptr noundef @t30_facsimile_control_field_vals_ext, ptr noundef @.str.402)
  call void (ptr, i32, ptr, ...) @col_append_fstr(ptr noundef %115, i32 noundef 25, ptr noundef @.str.401, ptr noundef %119, ptr noundef %123)
  %124 = load i8, ptr %15, align 1
  %125 = zext i8 %124 to i32
  switch i32 %125, label %146 [
    i32 129, label %126
    i32 130, label %133
    i32 131, label %133
    i32 133, label %133
    i32 134, label %133
    i32 132, label %140
  ]

126:                                              ; preds = %112
  %127 = load ptr, ptr %6, align 8
  %128 = load i32, ptr %10, align 4
  %129 = load ptr, ptr %7, align 8
  %130 = load i32, ptr %16, align 4
  %131 = load ptr, ptr %13, align 8
  %132 = load ptr, ptr %18, align 8
  call void @dissect_t30_dis_dtc(ptr noundef %127, i32 noundef %128, ptr noundef %129, i32 noundef %130, ptr noundef %131, i1 noundef zeroext true, ptr noundef %132)
  br label %198

133:                                              ; preds = %112, %112, %112, %112
  %134 = load ptr, ptr %6, align 8
  %135 = load i32, ptr %10, align 4
  %136 = load ptr, ptr %7, align 8
  %137 = load i32, ptr %16, align 4
  %138 = load ptr, ptr %13, align 8
  %139 = load ptr, ptr %18, align 8
  call void @dissect_t30_numbers(ptr noundef %134, i32 noundef %135, ptr noundef %136, i32 noundef %137, ptr noundef %138, ptr noundef %139)
  br label %198

140:                                              ; preds = %112
  %141 = load ptr, ptr %6, align 8
  %142 = load i32, ptr %10, align 4
  %143 = load ptr, ptr %7, align 8
  %144 = load i32, ptr %16, align 4
  %145 = load ptr, ptr %13, align 8
  call void @dissect_t30_non_standard_cap(ptr noundef %141, i32 noundef %142, ptr noundef %143, i32 noundef %144, ptr noundef %145)
  br label %198

146:                                              ; preds = %112
  %147 = load i8, ptr %15, align 1
  %148 = zext i8 %147 to i32
  %149 = and i32 %148, 127
  switch i32 %149, label %197 [
    i32 1, label %150
    i32 65, label %157
    i32 2, label %164
    i32 66, label %164
    i32 67, label %164
    i32 69, label %164
    i32 4, label %171
    i32 68, label %171
    i32 96, label %177
    i32 125, label %184
    i32 61, label %191
  ]

150:                                              ; preds = %146
  %151 = load ptr, ptr %6, align 8
  %152 = load i32, ptr %10, align 4
  %153 = load ptr, ptr %7, align 8
  %154 = load i32, ptr %16, align 4
  %155 = load ptr, ptr %13, align 8
  %156 = load ptr, ptr %18, align 8
  call void @dissect_t30_dis_dtc(ptr noundef %151, i32 noundef %152, ptr noundef %153, i32 noundef %154, ptr noundef %155, i1 noundef zeroext true, ptr noundef %156)
  br label %197

157:                                              ; preds = %146
  %158 = load ptr, ptr %6, align 8
  %159 = load i32, ptr %10, align 4
  %160 = load ptr, ptr %7, align 8
  %161 = load i32, ptr %16, align 4
  %162 = load ptr, ptr %13, align 8
  %163 = load ptr, ptr %18, align 8
  call void @dissect_t30_dis_dtc(ptr noundef %158, i32 noundef %159, ptr noundef %160, i32 noundef %161, ptr noundef %162, i1 noundef zeroext false, ptr noundef %163)
  br label %197

164:                                              ; preds = %146, %146, %146, %146
  %165 = load ptr, ptr %6, align 8
  %166 = load i32, ptr %10, align 4
  %167 = load ptr, ptr %7, align 8
  %168 = load i32, ptr %16, align 4
  %169 = load ptr, ptr %13, align 8
  %170 = load ptr, ptr %18, align 8
  call void @dissect_t30_numbers(ptr noundef %165, i32 noundef %166, ptr noundef %167, i32 noundef %168, ptr noundef %169, ptr noundef %170)
  br label %197

171:                                              ; preds = %146, %146
  %172 = load ptr, ptr %6, align 8
  %173 = load i32, ptr %10, align 4
  %174 = load ptr, ptr %7, align 8
  %175 = load i32, ptr %16, align 4
  %176 = load ptr, ptr %13, align 8
  call void @dissect_t30_non_standard_cap(ptr noundef %172, i32 noundef %173, ptr noundef %174, i32 noundef %175, ptr noundef %176)
  br label %197

177:                                              ; preds = %146
  %178 = load ptr, ptr %6, align 8
  %179 = load i32, ptr %10, align 4
  %180 = load ptr, ptr %7, align 8
  %181 = load i32, ptr %16, align 4
  %182 = load ptr, ptr %13, align 8
  %183 = load ptr, ptr %18, align 8
  call void @dissect_t30_facsimile_coded_data(ptr noundef %178, i32 noundef %179, ptr noundef %180, i32 noundef %181, ptr noundef %182, ptr noundef %183)
  br label %197

184:                                              ; preds = %146
  %185 = load ptr, ptr %6, align 8
  %186 = load i32, ptr %10, align 4
  %187 = load ptr, ptr %7, align 8
  %188 = load i32, ptr %16, align 4
  %189 = load ptr, ptr %13, align 8
  %190 = load ptr, ptr %18, align 8
  call void @dissect_t30_partial_page_signal(ptr noundef %185, i32 noundef %186, ptr noundef %187, i32 noundef %188, ptr noundef %189, ptr noundef %190)
  br label %197

191:                                              ; preds = %146
  %192 = load ptr, ptr %6, align 8
  %193 = load i32, ptr %10, align 4
  %194 = load ptr, ptr %7, align 8
  %195 = load i32, ptr %16, align 4
  %196 = load ptr, ptr %13, align 8
  call void @dissect_t30_partial_page_request(ptr noundef %192, i32 noundef %193, ptr noundef %194, i32 noundef %195, ptr noundef %196)
  br label %197

197:                                              ; preds = %146, %191, %184, %177, %171, %164, %157, %150
  br label %198

198:                                              ; preds = %197, %140, %133, %126
  %199 = load ptr, ptr %7, align 8
  %200 = getelementptr inbounds nuw %struct._packet_info, ptr %199, i32 0, i32 1
  %201 = load ptr, ptr %200, align 8
  call void @col_append_str(ptr noundef %201, i32 noundef 25, ptr noundef @.str.403)
  %202 = load i32, ptr %10, align 4
  store i32 %202, ptr %5, align 4
  store i32 1, ptr %19, align 4
  br label %203

203:                                              ; preds = %198, %25
  call void @llvm.lifetime.end.p0(i64 8, ptr %18) #8
  call void @llvm.lifetime.end.p0(i64 8, ptr %17) #8
  call void @llvm.lifetime.end.p0(i64 4, ptr %16) #8
  call void @llvm.lifetime.end.p0(i64 1, ptr %15) #8
  call void @llvm.lifetime.end.p0(i64 8, ptr %14) #8
  call void @llvm.lifetime.end.p0(i64 8, ptr %13) #8
  call void @llvm.lifetime.end.p0(i64 8, ptr %12) #8
  call void @llvm.lifetime.end.p0(i64 8, ptr %11) #8
  call void @llvm.lifetime.end.p0(i64 4, ptr %10) #8
  %204 = load i32, ptr %5, align 4
  ret i32 %204
}