; Function Attrs: null_pointer_is_valid sspstrong uwtable
define internal range(i32 0, 4) i32 @dissect_t30_hdlc(ptr noundef %0, ptr noundef %1, ptr noundef %2, ptr noundef %3) #1 {
  %5 = tail call i32 @tvb_reported_length_remaining(ptr noundef %0, i32 noundef 0)
  %6 = icmp slt i32 %5, 3
  br i1 %6, label %7, label %12

7:                                                ; preds = %4
  %8 = tail call i32 @tvb_reported_length_remaining(ptr noundef %0, i32 noundef 0)
  %9 = tail call ptr (ptr, ptr, ptr, ptr, i32, i32, ptr, ...) @proto_tree_add_expert_format(ptr noundef %2, ptr noundef %1, ptr noundef nonnull @ei_t30_bad_length, ptr noundef %0, i32 noundef 0, i32 noundef %8, ptr noundef nonnull @.str.397)
  %10 = getelementptr inbounds nuw i8, ptr %1, i64 8
  %11 = load ptr, ptr %10, align 8
  tail call void @col_append_str(ptr noundef %11, i32 noundef 25, ptr noundef nonnull @.str.398)
  br label %69

12:                                               ; preds = %4
  %13 = getelementptr inbounds nuw i8, ptr %1, i64 8
  %14 = load ptr, ptr %13, align 8
  tail call void @col_append_str(ptr noundef %14, i32 noundef 25, ptr noundef nonnull @.str.399)
  %15 = load i32, ptr @proto_t30, align 4
  %16 = tail call ptr (ptr, i32, ptr, i32, i32, ptr, ...) @proto_tree_add_protocol_format(ptr noundef %2, i32 noundef %15, ptr noundef %0, i32 noundef 0, i32 noundef -1, ptr noundef nonnull @.str.400)
  %17 = load i32, ptr @ett_t30, align 4
  %18 = tail call ptr @proto_item_add_subtree(ptr noundef %16, i32 noundef %17)
  %19 = tail call zeroext i8 @tvb_get_uint8(ptr noundef %0, i32 noundef 0)
  %20 = load i32, ptr @hf_t30_Address, align 4
  %21 = tail call ptr @proto_tree_add_item(ptr noundef %18, i32 noundef %20, ptr noundef %0, i32 noundef 0, i32 noundef 1, i32 noundef 0)
  %.not = icmp eq i8 %19, -1
  br i1 %.not, label %24, label %22

22:                                               ; preds = %12
  %23 = tail call ptr @expert_add_info(ptr noundef %1, ptr noundef %21, ptr noundef nonnull @ei_t30_Address_FF)
  br label %24

24:                                               ; preds = %22, %12
  %25 = tail call zeroext i8 @tvb_get_uint8(ptr noundef %0, i32 noundef 1)
  %26 = load i32, ptr @hf_t30_Control, align 4
  %27 = tail call ptr @proto_tree_add_item(ptr noundef %18, i32 noundef %26, ptr noundef %0, i32 noundef 1, i32 noundef 1, i32 noundef 0)
  %28 = and i8 %25, -9
  %or.cond.not = icmp eq i8 %28, -64
  br i1 %or.cond.not, label %31, label %29

29:                                               ; preds = %24
  %30 = tail call ptr @expert_add_info(ptr noundef %1, ptr noundef %27, ptr noundef nonnull @ei_t30_Control_C0C8)
  br label %31

31:                                               ; preds = %29, %24
  %32 = tail call zeroext i8 @tvb_get_uint8(ptr noundef %0, i32 noundef 2)
  %33 = load i32, ptr @hf_t30_Facsimile_Control, align 4
  %34 = tail call ptr @proto_tree_add_item(ptr noundef %18, i32 noundef %33, ptr noundef %0, i32 noundef 2, i32 noundef 1, i32 noundef 0)
  %35 = load i32, ptr @ett_t30_fif, align 4
  %36 = tail call ptr @proto_item_add_subtree(ptr noundef %34, i32 noundef %35)
  %37 = tail call i32 @tvb_reported_length_remaining(ptr noundef %0, i32 noundef 3)
  %.not114 = icmp eq ptr %3, null
  br i1 %.not114, label %40, label %38

38:                                               ; preds = %31
  %39 = getelementptr inbounds nuw i8, ptr %3, i64 24
  store i8 %32, ptr %39, align 8
  br label %40

40:                                               ; preds = %38, %31
  %41 = load ptr, ptr %13, align 8
  %42 = and i8 %32, 127
  %43 = zext nneg i8 %42 to i32
  %44 = tail call ptr @val_to_str_ext_const(i32 noundef %43, ptr noundef nonnull @t30_facsimile_control_field_vals_short_ext, ptr noundef nonnull @.str.402)
  %45 = tail call ptr @val_to_str_ext_const(i32 noundef %43, ptr noundef nonnull @t30_facsimile_control_field_vals_ext, ptr noundef nonnull @.str.402)
  tail call void (ptr, i32, ptr, ...) @col_append_fstr(ptr noundef %41, i32 noundef 25, ptr noundef nonnull @.str.401, ptr noundef %44, ptr noundef %45)
  switch i8 %32, label %60 [
    i8 -127, label %46
    i8 -126, label %47
    i8 -125, label %47
    i8 -123, label %47
    i8 -122, label %47
    i8 -124, label %48
  ]

46:                                               ; preds = %40
  tail call fastcc void @dissect_t30_dis_dtc(ptr noundef %0, ptr noundef %1, i32 noundef %37, ptr noundef %36, i1 noundef zeroext true, ptr noundef %3)
  br label %dissect_t30_non_standard_cap.exit

47:                                               ; preds = %40, %40, %40, %40
  tail call fastcc void @dissect_t30_numbers(ptr noundef %0, ptr noundef %1, i32 noundef %37, ptr noundef %36, ptr noundef %3)
  br label %dissect_t30_non_standard_cap.exit

48:                                               ; preds = %40
  %49 = icmp slt i32 %37, 2
  br i1 %49, label %50, label %54

50:                                               ; preds = %48
  %51 = tail call i32 @tvb_reported_length_remaining(ptr noundef %0, i32 noundef 3)
  %52 = tail call ptr (ptr, ptr, ptr, ptr, i32, i32, ptr, ...) @proto_tree_add_expert_format(ptr noundef %36, ptr noundef %1, ptr noundef nonnull @ei_t30_bad_length, ptr noundef %0, i32 noundef 3, i32 noundef %51, ptr noundef nonnull @.str.412)
  %53 = load ptr, ptr %13, align 8
  tail call void @col_append_str(ptr noundef %53, i32 noundef 25, ptr noundef nonnull @.str.405)
  br label %dissect_t30_non_standard_cap.exit

54:                                               ; preds = %48
  %55 = load i32, ptr @hf_t30_fif_country_code, align 4
  %56 = tail call ptr @proto_tree_add_item(ptr noundef %36, i32 noundef %55, ptr noundef %0, i32 noundef 3, i32 noundef 1, i32 noundef 0)
  %57 = load i32, ptr @hf_t30_fif_non_stand_bytes, align 4
  %58 = add nsw i32 %37, -1
  %59 = tail call ptr @proto_tree_add_item(ptr noundef %36, i32 noundef %57, ptr noundef %0, i32 noundef 4, i32 noundef %58, i32 noundef 0)
  br label %dissect_t30_non_standard_cap.exit

60:                                               ; preds = %40
  switch i8 %42, label %dissect_t30_non_standard_cap.exit [
    i8 1, label %61
    i8 65, label %62
    i8 2, label %63
    i8 66, label %63
    i8 67, label %63
    i8 69, label %63
    i8 4, label %64
    i8 68, label %64
    i8 96, label %65
    i8 125, label %66
    i8 61, label %67
  ]

61:                                               ; preds = %60
  tail call fastcc void @dissect_t30_dis_dtc(ptr noundef %0, ptr noundef %1, i32 noundef %37, ptr noundef %36, i1 noundef zeroext true, ptr noundef %3)
  br label %dissect_t30_non_standard_cap.exit

62:                                               ; preds = %60
  tail call fastcc void @dissect_t30_dis_dtc(ptr noundef %0, ptr noundef %1, i32 noundef %37, ptr noundef %36, i1 noundef zeroext false, ptr noundef %3)
  br label %dissect_t30_non_standard_cap.exit

63:                                               ; preds = %60, %60, %60, %60
  tail call fastcc void @dissect_t30_numbers(ptr noundef %0, ptr noundef %1, i32 noundef %37, ptr noundef %36, ptr noundef %3)
  br label %dissect_t30_non_standard_cap.exit

64:                                               ; preds = %60, %60
  tail call fastcc void @dissect_t30_non_standard_cap(ptr noundef %0, ptr noundef %1, i32 noundef %37, ptr noundef %36)
  br label %dissect_t30_non_standard_cap.exit

65:                                               ; preds = %60
  tail call fastcc void @dissect_t30_facsimile_coded_data(ptr noundef %0, ptr noundef %1, i32 noundef %37, ptr noundef %36, ptr noundef %3)
  br label %dissect_t30_non_standard_cap.exit

66:                                               ; preds = %60
  tail call fastcc void @dissect_t30_partial_page_signal(ptr noundef %0, ptr noundef %1, i32 noundef %37, ptr noundef %36, ptr noundef %3)
  br label %dissect_t30_non_standard_cap.exit

67:                                               ; preds = %60
  tail call fastcc void @dissect_t30_partial_page_request(ptr noundef %0, ptr noundef %1, i32 noundef %37, ptr noundef %36)
  br label %dissect_t30_non_standard_cap.exit

dissect_t30_non_standard_cap.exit:                ; preds = %54, %50, %60, %61, %62, %63, %64, %65, %66, %67, %47, %46
  %68 = load ptr, ptr %13, align 8
  tail call void @col_append_str(ptr noundef %68, i32 noundef 25, ptr noundef nonnull @.str.403)
  br label %69

69:                                               ; preds = %dissect_t30_non_standard_cap.exit, %7
  %.0 = phi i32 [ 0, %7 ], [ 3, %dissect_t30_non_standard_cap.exit ]
  ret i32 %.0
}